; Function Attrs: nounwind uwtable
define ptr @l_Std_DHashMap_Internal_Raw_u2080_expand___at_Std_Sat_AIG_mkGateCached_go___spec__3___rarg(ptr noundef %0, ptr noundef %1) #1 {
  %3 = getelementptr i8, ptr %1, i64 8
  %.val = load i64, ptr %3, align 8, !tbaa !12
  %4 = shl i64 %.val, 1
  %5 = or disjoint i64 %4, 1
  %6 = inttoptr i64 %5 to ptr
  %7 = and i64 %.val, 9223372036854775807
  %8 = icmp eq i64 %7, 0
  br i1 %8, label %lean_dec.exit, label %9

9:                                                ; preds = %2
  %mul.i11.mask = and i64 %.val, 4611686018427387904
  %10 = icmp eq i64 %mul.i11.mask, 0
  br i1 %10, label %11, label %15

11:                                               ; preds = %9
  %12 = shl nuw i64 %7, 2
  %13 = or disjoint i64 %12, 1
  %14 = inttoptr i64 %13 to ptr
  br label %lean_dec.exit

15:                                               ; preds = %9
  %16 = tail call ptr @lean_nat_overflow_mul(i64 noundef %7, i64 noundef 2) #4
  br label %lean_dec.exit

lean_dec.exit:                                    ; preds = %15, %11, %2
  %.2.i = phi ptr [ %6, %2 ], [ %14, %11 ], [ %16, %15 ]
  %17 = tail call ptr @lean_mk_array(ptr noundef %.2.i, ptr noundef nonnull inttoptr (i64 1 to ptr)) #4
  %18 = tail call ptr @l_Std_DHashMap_Internal_Raw_u2080_expand_go___at_Std_Sat_AIG_mkGateCached_go___spec__4___rarg(ptr noundef %0, ptr noundef nonnull inttoptr (i64 1 to ptr), ptr noundef nonnull %1, ptr noundef %17)
  ret ptr %18
}